; Function Attrs: nounwind uwtable
define i32 @Wln_ObjClone(ptr noundef %0, ptr noundef readonly captures(none) %1, i32 noundef %2) local_unnamed_addr #0 {
  %4 = getelementptr i8, ptr %1, i64 80
  %.val = load ptr, ptr %4, align 8
  %5 = sext i32 %2 to i64
  %6 = getelementptr inbounds i32, ptr %.val, i64 %5
  %7 = load i32, ptr %6, align 4
  %8 = getelementptr i8, ptr %1, i64 168
  %.val8 = load ptr, ptr %8, align 8
  %9 = getelementptr inbounds i8, ptr %.val8, i64 %5
  %10 = load i8, ptr %9, align 1
  %11 = sext i8 %10 to i32
  %12 = getelementptr i8, ptr %1, i64 104
  %.val9 = load ptr, ptr %12, align 8
  %13 = getelementptr i8, ptr %1, i64 112
  %.val10 = load ptr, ptr %13, align 8
  %14 = getelementptr i8, ptr %.val10, i64 8
  %.val10.val = load ptr, ptr %14, align 8
  %15 = getelementptr i8, ptr %.val10.val, i64 8
  %.val10.val.val = load ptr, ptr %15, align 8
  %16 = getelementptr inbounds i32, ptr %.val9, i64 %5
  %17 = load i32, ptr %16, align 4
  %.not.i.i.i = icmp ne i32 %17, 0
  tail call void @llvm.assume(i1 %.not.i.i.i)
  %18 = shl nsw i32 %17, 2
  %19 = sext i32 %18 to i64
  %20 = getelementptr inbounds i32, ptr %.val10.val.val, i64 %19
  %21 = load i32, ptr %20, align 4
  %22 = getelementptr inbounds nuw i8, ptr %20, i64 4
  %23 = load i32, ptr %22, align 4
  %24 = tail call i32 @Wln_ObjAlloc(ptr noundef %0, i32 noundef %7, i32 noundef %11, i32 noundef %21, i32 noundef %23)
  ret i32 %24
}